target datalayout = "e-m:e-p270:32:32-p271:32:32-p272:64:64-i64:64-i128:128-f80:128-n8:16:32:64-S128"
target triple = "x86_64-pc-linux-gnu"

%struct.UriMemoryManagerStruct = type { ptr, ptr, ptr, ptr, ptr, ptr }
%struct.UriParserStateStructA = type { ptr, i32, ptr, ptr }
%struct.UriUriStructA = type { %struct.UriTextRangeStructA, %struct.UriTextRangeStructA, %struct.UriTextRangeStructA, %struct.UriHostDataStructA, %struct.UriTextRangeStructA, ptr, ptr, %struct.UriTextRangeStructA, %struct.UriTextRangeStructA, i32, i32, ptr }
%struct.UriHostDataStructA = type { ptr, ptr, %struct.UriTextRangeStructA }
%struct.UriTextRangeStructA = type { ptr, ptr }

@defaultMemoryManager = external global %struct.UriMemoryManagerStruct, align 8

; Function Attrs: inlinehint nounwind uwtable
define internal void @uriResetParserStateExceptUriA(ptr noundef %0) #4 {
  %2 = alloca ptr, align 8
  %3 = alloca ptr, align 8
  store ptr %0, ptr %2, align 8, !tbaa !3
  call void @llvm.lifetime.start.p0(i64 8, ptr %3) #7
  %4 = load ptr, ptr %2, align 8, !tbaa !3
  %5 = getelementptr inbounds nuw %struct.UriParserStateStructA, ptr %4, i32 0, i32 0
  %6 = load ptr, ptr %5, align 8, !tbaa !12
  store ptr %6, ptr %3, align 8, !tbaa !16
  %7 = load ptr, ptr %2, align 8, !tbaa !3
  call void @llvm.memset.p0.i64(ptr align 8 %7, i8 0, i64 32, i1 false)
  %8 = load ptr, ptr %3, align 8, !tbaa !16
  %9 = load ptr, ptr %2, align 8, !tbaa !3
  %10 = getelementptr inbounds nuw %struct.UriParserStateStructA, ptr %9, i32 0, i32 0
  store ptr %8, ptr %10, align 8, !tbaa !12
  call void @llvm.lifetime.end.p0(i64 8, ptr %3) #7
  ret void
}

; Function Attrs: nounwind uwtable
define i32 @uri_TESTING_ONLY_ParseIpSixA(ptr noundef %0) #0 {
  %2 = alloca ptr, align 8
  %3 = alloca ptr, align 8
  %4 = alloca %struct.UriUriStructA, align 8
  %5 = alloca %struct.UriParserStateStructA, align 8
  %6 = alloca ptr, align 8
  %7 = alloca ptr, align 8
  store ptr %0, ptr %2, align 8, !tbaa !8
  call void @llvm.lifetime.start.p0(i64 8, ptr %3) #7
  store ptr @defaultMemoryManager, ptr %3, align 8, !tbaa !10
  call void @llvm.lifetime.start.p0(i64 160, ptr %4) #7
  call void @llvm.lifetime.start.p0(i64 32, ptr %5) #7
  call void @llvm.lifetime.start.p0(i64 8, ptr %6) #7
  %8 = load ptr, ptr %2, align 8, !tbaa !8
  %9 = load ptr, ptr %2, align 8, !tbaa !8
  %10 = call i64 @strlen(ptr noundef %9) #8
  %11 = getelementptr inbounds nuw i8, ptr %8, i64 %10
  store ptr %11, ptr %6, align 8, !tbaa !8
  call void @llvm.lifetime.start.p0(i64 8, ptr %7) #7
  call void @uriResetUriA(ptr noundef %4)
  %12 = getelementptr inbounds nuw %struct.UriParserStateStructA, ptr %5, i32 0, i32 0
  store ptr %4, ptr %12, align 8, !tbaa !12
  call void @uriResetParserStateExceptUriA(ptr noundef %5)
  %13 = load ptr, ptr @defaultMemoryManager, align 8, !tbaa !56
  %14 = call ptr %13(ptr noundef @defaultMemoryManager, i64 noundef 16)
  %15 = getelementptr inbounds nuw %struct.UriParserStateStructA, ptr %5, i32 0, i32 0
  %16 = load ptr, ptr %15, align 8, !tbaa !12
  %17 = getelementptr inbounds nuw %struct.UriUriStructA, ptr %16, i32 0, i32 3
  %18 = getelementptr inbounds nuw %struct.UriHostDataStructA, ptr %17, i32 0, i32 1
  store ptr %14, ptr %18, align 8, !tbaa !40
  %19 = load ptr, ptr %2, align 8, !tbaa !8
  %20 = load ptr, ptr %6, align 8, !tbaa !8
  %21 = call ptr @uriParseIPv6address2A(ptr noundef %5, ptr noundef %19, ptr noundef %20, ptr noundef @defaultMemoryManager)
  store ptr %21, ptr %7, align 8, !tbaa !8
  %22 = call i32 @uriFreeUriMembersMmA(ptr noundef %4, ptr noundef @defaultMemoryManager)
  %23 = load ptr, ptr %7, align 8, !tbaa !8
  %24 = load ptr, ptr %6, align 8, !tbaa !8
  %25 = icmp eq ptr %23, %24
  %26 = select i1 %25, i32 1, i32 0
  call void @llvm.lifetime.end.p0(i64 8, ptr %7) #7
  call void @llvm.lifetime.end.p0(i64 8, ptr %6) #7
  call void @llvm.lifetime.end.p0(i64 32, ptr %5) #7
  call void @llvm.lifetime.end.p0(i64 160, ptr %4) #7
  call void @llvm.lifetime.end.p0(i64 8, ptr %3) #7
  ret i32 %26
}