; Function Attrs: nounwind uwtable
define range(i32 0, 2) i32 @uri_TESTING_ONLY_ParseIpSixA(ptr noundef %0) local_unnamed_addr #0 {
  %2 = alloca %struct.UriUriStructA, align 8
  %3 = alloca %struct.UriParserStateStructA, align 8
  call void @llvm.lifetime.start.p0(i64 160, ptr nonnull %2) #7
  call void @llvm.lifetime.start.p0(i64 32, ptr nonnull %3) #7
  %4 = tail call i64 @strlen(ptr noundef nonnull dereferenceable(1) %0) #8
  %5 = getelementptr inbounds nuw i8, ptr %0, i64 %4
  call void @uriResetUriA(ptr noundef nonnull %2) #7
  %6 = getelementptr inbounds nuw i8, ptr %3, i64 8
  call void @llvm.memset.p0.i64(ptr noundef nonnull align 8 dereferenceable(32) %6, i8 0, i64 24, i1 false)
  store ptr %2, ptr %3, align 8, !tbaa !3
  %7 = load ptr, ptr @defaultMemoryManager, align 8, !tbaa !49
  %8 = call ptr %7(ptr noundef nonnull @defaultMemoryManager, i64 noundef 16) #7
  %9 = getelementptr inbounds nuw i8, ptr %2, i64 56
  store ptr %8, ptr %9, align 8, !tbaa !39
  %10 = call fastcc ptr @uriParseIPv6address2A(ptr noundef %3, ptr noundef nonnull %0, ptr noundef nonnull %5, ptr noundef nonnull @defaultMemoryManager)
  %11 = call i32 @uriFreeUriMembersMmA(ptr noundef nonnull %2, ptr noundef nonnull @defaultMemoryManager)
  %12 = icmp eq ptr %10, %5
  %13 = zext i1 %12 to i32
  call void @llvm.lifetime.end.p0(i64 32, ptr nonnull %3) #7
  call void @llvm.lifetime.end.p0(i64 160, ptr nonnull %2) #7
  ret i32 %13
}